; Function Attrs: mustprogress uwtable
define hidden void @_ZN4lean8quot_valC2ERKNS_4nameERKNS_8list_refIS1_EERKNS_4exprENS_9quot_kindE(ptr noundef nonnull writeonly align 8 captures(none) dereferenceable(8) initializes((0, 8)) %0, ptr noundef nonnull readonly align 8 captures(none) dereferenceable(8) %1, ptr noundef nonnull readonly align 8 captures(none) dereferenceable(8) %2, ptr noundef nonnull readonly align 8 captures(none) dereferenceable(8) %3, i32 noundef %4) unnamed_addr #0 align 2 {
  %6 = load ptr, ptr %1, align 8, !tbaa !3
  %7 = ptrtoint ptr %6 to i64
  %8 = and i64 %7, 1
  %.not.i.i = icmp eq i64 %8, 0
  br i1 %.not.i.i, label %9, label %_ZNK4lean10object_ref10to_obj_argEv.exit

9:                                                ; preds = %5
  %.val.i.i.i = load i32, ptr %6, align 4, !tbaa !8
  %10 = icmp sgt i32 %.val.i.i.i, 0
  br i1 %10, label %11, label %13, !prof !11

11:                                               ; preds = %9
  %12 = add nuw nsw i32 %.val.i.i.i, 1
  store i32 %12, ptr %6, align 4, !tbaa !8
  br label %_ZNK4lean10object_ref10to_obj_argEv.exit

13:                                               ; preds = %9
  %.not.i.i.i = icmp eq i32 %.val.i.i.i, 0
  br i1 %.not.i.i.i, label %_ZNK4lean10object_ref10to_obj_argEv.exit, label %14

14:                                               ; preds = %13
  tail call void @lean_inc_ref_cold(ptr noundef nonnull %6)
  %.pre.i = load ptr, ptr %1, align 8, !tbaa !3
  br label %_ZNK4lean10object_ref10to_obj_argEv.exit

_ZNK4lean10object_ref10to_obj_argEv.exit:         ; preds = %5, %11, %13, %14
  %15 = phi ptr [ %6, %5 ], [ %6, %11 ], [ %6, %13 ], [ %.pre.i, %14 ]
  %16 = load ptr, ptr %2, align 8, !tbaa !3
  %17 = ptrtoint ptr %16 to i64
  %18 = and i64 %17, 1
  %.not.i.i4 = icmp eq i64 %18, 0
  br i1 %.not.i.i4, label %19, label %_ZNK4lean10object_ref10to_obj_argEv.exit8

19:                                               ; preds = %_ZNK4lean10object_ref10to_obj_argEv.exit
  %.val.i.i.i5 = load i32, ptr %16, align 4, !tbaa !8
  %20 = icmp sgt i32 %.val.i.i.i5, 0
  br i1 %20, label %21, label %23, !prof !11

21:                                               ; preds = %19
  %22 = add nuw nsw i32 %.val.i.i.i5, 1
  store i32 %22, ptr %16, align 4, !tbaa !8
  br label %_ZNK4lean10object_ref10to_obj_argEv.exit8

23:                                               ; preds = %19
  %.not.i.i.i6 = icmp eq i32 %.val.i.i.i5, 0
  br i1 %.not.i.i.i6, label %_ZNK4lean10object_ref10to_obj_argEv.exit8, label %24

24:                                               ; preds = %23
  tail call void @lean_inc_ref_cold(ptr noundef nonnull %16)
  %.pre.i7 = load ptr, ptr %2, align 8, !tbaa !3
  br label %_ZNK4lean10object_ref10to_obj_argEv.exit8

_ZNK4lean10object_ref10to_obj_argEv.exit8:        ; preds = %_ZNK4lean10object_ref10to_obj_argEv.exit, %21, %23, %24
  %25 = phi ptr [ %16, %_ZNK4lean10object_ref10to_obj_argEv.exit ], [ %16, %21 ], [ %16, %23 ], [ %.pre.i7, %24 ]
  %26 = load ptr, ptr %3, align 8, !tbaa !3
  %27 = ptrtoint ptr %26 to i64
  %28 = and i64 %27, 1
  %.not.i.i9 = icmp eq i64 %28, 0
  br i1 %.not.i.i9, label %29, label %_ZNK4lean10object_ref10to_obj_argEv.exit13

29:                                               ; preds = %_ZNK4lean10object_ref10to_obj_argEv.exit8
  %.val.i.i.i10 = load i32, ptr %26, align 4, !tbaa !8
  %30 = icmp sgt i32 %.val.i.i.i10, 0
  br i1 %30, label %31, label %33, !prof !11

31:                                               ; preds = %29
  %32 = add nuw nsw i32 %.val.i.i.i10, 1
  store i32 %32, ptr %26, align 4, !tbaa !8
  br label %_ZNK4lean10object_ref10to_obj_argEv.exit13

33:                                               ; preds = %29
  %.not.i.i.i11 = icmp eq i32 %.val.i.i.i10, 0
  br i1 %.not.i.i.i11, label %_ZNK4lean10object_ref10to_obj_argEv.exit13, label %34

34:                                               ; preds = %33
  tail call void @lean_inc_ref_cold(ptr noundef nonnull %26)
  %.pre.i12 = load ptr, ptr %3, align 8, !tbaa !3
  br label %_ZNK4lean10object_ref10to_obj_argEv.exit13

_ZNK4lean10object_ref10to_obj_argEv.exit13:       ; preds = %_ZNK4lean10object_ref10to_obj_argEv.exit8, %31, %33, %34
  %35 = phi ptr [ %26, %_ZNK4lean10object_ref10to_obj_argEv.exit8 ], [ %26, %31 ], [ %26, %33 ], [ %.pre.i12, %34 ]
  %36 = trunc i32 %4 to i8
  %37 = tail call ptr @lean_mk_quot_val(ptr noundef %15, ptr noundef %25, ptr noundef %35, i8 noundef zeroext %36)
  store ptr %37, ptr %0, align 8, !tbaa !3
  ret void
}